; Function Attrs: mustprogress uwtable
define noundef ptr @_ZNK4LIEF5MachO13ThreadCommand5cloneEv(ptr noundef nonnull align 8 dereferenceable(96) %0) unnamed_addr #1 align 2 personality ptr @__gxx_personality_v0 {
  %2 = tail call noalias noundef nonnull dereferenceable(96) ptr @_Znwm(i64 noundef 96) #18
  invoke void @_ZN4LIEF5MachO13ThreadCommandC1ERKS1_(ptr noundef nonnull align 8 dereferenceable(96) %2, ptr noundef nonnull align 8 dereferenceable(96) %0)
          to label %3 unwind label %4

3:                                                ; preds = %1
  ret ptr %2

4:                                                ; preds = %1
  %5 = landingpad { ptr, i32 }
          cleanup
  tail call void @_ZdlPv(ptr noundef nonnull %2) #19
  resume { ptr, i32 } %5
}